target datalayout = "e-m:e-p270:32:32-p271:32:32-p272:64:64-i64:64-i128:128-f80:128-n8:16:32:64-S128"
target triple = "x86_64-pc-linux-gnu"

%"class.google::protobuf::internal::LogMessage" = type { i32, ptr, i32, %"class.std::__cxx11::basic_string" }
%"class.std::__cxx11::basic_string" = type { %"struct.std::__cxx11::basic_string<char>::_Alloc_hider", i64, %union.anon }
%"struct.std::__cxx11::basic_string<char>::_Alloc_hider" = type { ptr }
%union.anon = type { i64, [8 x i8] }
%"class.google::protobuf::internal::LogFinisher" = type { i8 }

@.str = private unnamed_addr constant [148 x i8] c"generated/home/dtcxzyw/WorkSpace/Projects/compilers/llvm-opt-benchmark/bench/opencv/opencv/3rdparty/protobuf/src/google/protobuf/io/coded_stream.cc\00", align 1
@.str.16 = private unnamed_addr constant [34 x i8] c"CHECK failed: (value) >= (0x80): \00", align 1

; Function Attrs: mustprogress uwtable
define hidden noundef ptr @_ZN6google8protobuf2io17CodedOutputStream35WriteVarint32ToArrayOutOfLineHelperEjPh(i32 noundef %0, ptr noundef %1) #5 align 2 personality ptr @__gxx_personality_v0 {
  %3 = alloca ptr, align 8
  %4 = alloca i32, align 4
  %5 = alloca ptr, align 8
  %6 = alloca %"class.google::protobuf::internal::LogMessage", align 8
  %7 = alloca i1, align 1
  %8 = alloca i1, align 1
  %9 = alloca ptr, align 8
  %10 = alloca i32, align 4
  %11 = alloca %"class.google::protobuf::internal::LogFinisher", align 1
  store i32 %0, ptr %4, align 4, !tbaa !18
  store ptr %1, ptr %5, align 8, !tbaa !50
  br label %12

12:                                               ; preds = %27, %2
  br i1 false, label %13, label %43

13:                                               ; preds = %12
  %14 = load i32, ptr %4, align 4, !tbaa !18
  %15 = icmp uge i32 %14, 128
  store i1 false, ptr %7, align 1
  store i1 false, ptr %8, align 1
  call void @llvm.lifetime.start.p0(i64 1, ptr %11) #3
  br i1 %15, label %16, label %17

16:                                               ; preds = %13
  br label %21

17:                                               ; preds = %13
  call void @llvm.lifetime.start.p0(i64 56, ptr %6) #3
  store i1 true, ptr %7, align 1
  call void @_ZN6google8protobuf8internal10LogMessageC1ENS0_8LogLevelEPKci(ptr noundef nonnull align 8 dereferenceable(56) %6, i32 noundef 3, ptr noundef @.str, i32 noundef 956)
  store i1 true, ptr %8, align 1
  %18 = invoke noundef nonnull align 8 dereferenceable(56) ptr @_ZN6google8protobuf8internal10LogMessagelsEPKc(ptr noundef nonnull align 8 dereferenceable(56) %6, ptr noundef @.str.16)
          to label %19 unwind label %28

19:                                               ; preds = %17
  invoke void @_ZN6google8protobuf8internal11LogFinisheraSERNS1_10LogMessageE(ptr noundef nonnull align 1 dereferenceable(1) %11, ptr noundef nonnull align 8 dereferenceable(56) %18)
          to label %20 unwind label %32

20:                                               ; preds = %19
  br label %21

21:                                               ; preds = %20, %16
  call void @llvm.lifetime.end.p0(i64 1, ptr %11) #3
  %22 = load i1, ptr %8, align 1
  br i1 %22, label %23, label %24

23:                                               ; preds = %21
  call void @_ZN6google8protobuf8internal10LogMessageD1Ev(ptr noundef nonnull align 8 dereferenceable(56) %6) #3
  br label %24

24:                                               ; preds = %23, %21
  %25 = load i1, ptr %7, align 1
  br i1 %25, label %26, label %27

26:                                               ; preds = %24
  call void @llvm.lifetime.end.p0(i64 56, ptr %6) #3
  br label %27

27:                                               ; preds = %26, %24
  br label %12, !llvm.loop !113

28:                                               ; preds = %17
  %29 = landingpad { ptr, i32 }
          cleanup
  %30 = extractvalue { ptr, i32 } %29, 0
  store ptr %30, ptr %9, align 8
  %31 = extractvalue { ptr, i32 } %29, 1
  store i32 %31, ptr %10, align 4
  br label %36

32:                                               ; preds = %19
  %33 = landingpad { ptr, i32 }
          cleanup
  %34 = extractvalue { ptr, i32 } %33, 0
  store ptr %34, ptr %9, align 8
  %35 = extractvalue { ptr, i32 } %33, 1
  store i32 %35, ptr %10, align 4
  call void @llvm.lifetime.end.p0(i64 1, ptr %11) #3
  br label %36

36:                                               ; preds = %32, %28
  %37 = load i1, ptr %8, align 1
  br i1 %37, label %38, label %39

38:                                               ; preds = %36
  call void @_ZN6google8protobuf8internal10LogMessageD1Ev(ptr noundef nonnull align 8 dereferenceable(56) %6) #3
  br label %39

39:                                               ; preds = %38, %36
  %40 = load i1, ptr %7, align 1
  br i1 %40, label %41, label %42

41:                                               ; preds = %39
  call void @llvm.lifetime.end.p0(i64 56, ptr %6) #3
  br label %42

42:                                               ; preds = %41, %39
  br label %85

43:                                               ; preds = %12
  %44 = load ptr, ptr %5, align 8, !tbaa !50
  %45 = getelementptr inbounds i8, ptr %44, i64 0
  %46 = load i8, ptr %45, align 1, !tbaa !29
  %47 = zext i8 %46 to i32
  %48 = or i32 %47, 128
  %49 = trunc i32 %48 to i8
  store i8 %49, ptr %45, align 1, !tbaa !29
  %50 = load i32, ptr %4, align 4, !tbaa !18
  %51 = lshr i32 %50, 7
  store i32 %51, ptr %4, align 4, !tbaa !18
  %52 = load i32, ptr %4, align 4, !tbaa !18
  %53 = trunc i32 %52 to i8
  %54 = load ptr, ptr %5, align 8, !tbaa !50
  %55 = getelementptr inbounds i8, ptr %54, i64 1
  store i8 %53, ptr %55, align 1, !tbaa !29
  %56 = load i32, ptr %4, align 4, !tbaa !18
  %57 = icmp ult i32 %56, 128
  br i1 %57, label %58, label %61

58:                                               ; preds = %43
  %59 = load ptr, ptr %5, align 8, !tbaa !50
  %60 = getelementptr inbounds i8, ptr %59, i64 2
  store ptr %60, ptr %3, align 8
  br label %83

61:                                               ; preds = %43
  %62 = load ptr, ptr %5, align 8, !tbaa !50
  %63 = getelementptr inbounds i8, ptr %62, i64 2
  store ptr %63, ptr %5, align 8, !tbaa !50
  br label %64

64:                                               ; preds = %78, %61
  %65 = load ptr, ptr %5, align 8, !tbaa !50
  %66 = getelementptr inbounds i8, ptr %65, i64 -1
  %67 = load i8, ptr %66, align 1, !tbaa !29
  %68 = zext i8 %67 to i32
  %69 = or i32 %68, 128
  %70 = trunc i32 %69 to i8
  store i8 %70, ptr %66, align 1, !tbaa !29
  %71 = load i32, ptr %4, align 4, !tbaa !18
  %72 = lshr i32 %71, 7
  store i32 %72, ptr %4, align 4, !tbaa !18
  %73 = load i32, ptr %4, align 4, !tbaa !18
  %74 = trunc i32 %73 to i8
  %75 = load ptr, ptr %5, align 8, !tbaa !50
  store i8 %74, ptr %75, align 1, !tbaa !29
  %76 = load ptr, ptr %5, align 8, !tbaa !50
  %77 = getelementptr inbounds nuw i8, ptr %76, i32 1
  store ptr %77, ptr %5, align 8, !tbaa !50
  br label %78

78:                                               ; preds = %64
  %79 = load i32, ptr %4, align 4, !tbaa !18
  %80 = icmp uge i32 %79, 128
  br i1 %80, label %64, label %81, !llvm.loop !114

81:                                               ; preds = %78
  %82 = load ptr, ptr %5, align 8, !tbaa !50
  store ptr %82, ptr %3, align 8
  br label %83

83:                                               ; preds = %81, %58
  %84 = load ptr, ptr %3, align 8
  ret ptr %84

85:                                               ; preds = %42
  %86 = load ptr, ptr %9, align 8
  %87 = load i32, ptr %10, align 4
  %88 = insertvalue { ptr, i32 } poison, ptr %86, 0
  %89 = insertvalue { ptr, i32 } %88, i32 %87, 1
  resume { ptr, i32 } %89
}