; Function Attrs: mustprogress nofree norecurse nosync nounwind memory(argmem: readwrite) uwtable
define hidden noundef nonnull ptr @_ZN6google8protobuf2io17CodedOutputStream35WriteVarint32ToArrayOutOfLineHelperEjPh(i32 noundef %0, ptr noundef initializes((1, 2)) %1) local_unnamed_addr #12 align 2 personality ptr @__gxx_personality_v0 {
  %3 = load i8, ptr %1, align 1, !tbaa !27
  %4 = or i8 %3, -128
  store i8 %4, ptr %1, align 1, !tbaa !27
  %5 = lshr i32 %0, 7
  %6 = trunc i32 %5 to i8
  %7 = getelementptr inbounds nuw i8, ptr %1, i64 1
  store i8 %6, ptr %7, align 1, !tbaa !27
  %8 = icmp ult i32 %0, 16384
  %9 = getelementptr inbounds nuw i8, ptr %1, i64 2
  br i1 %8, label %.loopexit, label %.preheader

.preheader:                                       ; preds = %2
  %scevgep = getelementptr i8, ptr %1, i64 1
  %load_initial = load i8, ptr %scevgep, align 1
  br label %10

10:                                               ; preds = %.preheader, %10
  %store_forwarded = phi i8 [ %load_initial, %.preheader ], [ %14, %10 ]
  %.014 = phi i32 [ %5, %.preheader ], [ %13, %10 ]
  %.0 = phi ptr [ %9, %.preheader ], [ %15, %10 ]
  %11 = getelementptr inbounds i8, ptr %.0, i64 -1
  %12 = or i8 %store_forwarded, -128
  store i8 %12, ptr %11, align 1, !tbaa !27
  %13 = lshr i32 %.014, 7
  %14 = trunc i32 %13 to i8
  store i8 %14, ptr %.0, align 1, !tbaa !27
  %15 = getelementptr inbounds nuw i8, ptr %.0, i64 1
  %16 = icmp samesign ugt i32 %.014, 16383
  br i1 %16, label %10, label %.loopexit, !llvm.loop !75

.loopexit:                                        ; preds = %10, %2
  %.015 = phi ptr [ %9, %2 ], [ %15, %10 ]
  ret ptr %.015
}